; Function Attrs: null_pointer_is_valid sspstrong uwtable
define hidden noundef i32 @dissect_dcerpc_uint16s(ptr noundef %0, i32 noundef %1, ptr noundef readnone captures(none) %2, ptr noundef %3, ptr noundef readonly captures(none) %4, i32 noundef %5, i32 noundef %6) local_unnamed_addr #0 {
  %8 = shl i32 %6, 1
  %9 = load i8, ptr %4, align 1
  %10 = and i8 %9, 16
  %11 = zext nneg i8 %10 to i32
  %12 = shl nuw i32 %11, 27
  %13 = tail call ptr @proto_tree_add_item(ptr noundef %3, i32 noundef %5, ptr noundef %0, i32 noundef %1, i32 noundef %8, i32 noundef %12)
  %14 = add i32 %8, %1
  ret i32 %14
}